target datalayout = "e-m:e-p270:32:32-p271:32:32-p272:64:64-i64:64-i128:128-f80:128-n8:16:32:64-S128"
target triple = "x86_64-pc-linux-gnu"

%struct.wtap = type { ptr, ptr, i8, i32, i32, ptr, ptr, ptr, i32, ptr, ptr, ptr, ptr, ptr, ptr, ptr, ptr, ptr, ptr, i32, i32, ptr, ptr, ptr, ptr }

; Function Attrs: null_pointer_is_valid sspstrong uwtable
define internal i64 @eyesdn_seek_next_packet(ptr noundef %0, ptr noundef %1, ptr noundef %2) #0 {
  %4 = alloca i64, align 8
  %5 = alloca ptr, align 8
  %6 = alloca ptr, align 8
  %7 = alloca ptr, align 8
  %8 = alloca i32, align 4
  %9 = alloca i64, align 8
  %10 = alloca i32, align 4
  store ptr %0, ptr %5, align 8
  store ptr %1, ptr %6, align 8
  store ptr %2, ptr %7, align 8
  call void @llvm.lifetime.start.p0(i64 4, ptr %8) #6
  call void @llvm.lifetime.start.p0(i64 8, ptr %9) #6
  br label %11

11:                                               ; preds = %36, %3
  %12 = load ptr, ptr %5, align 8
  %13 = getelementptr inbounds nuw %struct.wtap, ptr %12, i32 0, i32 0
  %14 = load ptr, ptr %13, align 8
  %15 = call i32 @file_getc(ptr noundef %14)
  store i32 %15, ptr %8, align 4
  %16 = icmp ne i32 %15, -1
  br i1 %16, label %17, label %37

17:                                               ; preds = %11
  %18 = load i32, ptr %8, align 4
  %19 = icmp eq i32 %18, 255
  br i1 %19, label %20, label %36

20:                                               ; preds = %17
  %21 = load ptr, ptr %5, align 8
  %22 = getelementptr inbounds nuw %struct.wtap, ptr %21, i32 0, i32 0
  %23 = load ptr, ptr %22, align 8
  %24 = call i64 @file_tell(ptr noundef %23)
  store i64 %24, ptr %9, align 8
  %25 = load i64, ptr %9, align 8
  %26 = icmp eq i64 %25, -1
  br i1 %26, label %27, label %34

27:                                               ; preds = %20
  %28 = load ptr, ptr %5, align 8
  %29 = getelementptr inbounds nuw %struct.wtap, ptr %28, i32 0, i32 0
  %30 = load ptr, ptr %29, align 8
  %31 = load ptr, ptr %7, align 8
  %32 = call i32 @file_error(ptr noundef %30, ptr noundef %31)
  %33 = load ptr, ptr %6, align 8
  store i32 %32, ptr %33, align 4
  store i64 -1, ptr %4, align 8
  store i32 1, ptr %10, align 4
  br label %44

34:                                               ; preds = %20
  %35 = load i64, ptr %9, align 8
  store i64 %35, ptr %4, align 8
  store i32 1, ptr %10, align 4
  br label %44

36:                                               ; preds = %17
  br label %11, !llvm.loop !6

37:                                               ; preds = %11
  %38 = load ptr, ptr %5, align 8
  %39 = getelementptr inbounds nuw %struct.wtap, ptr %38, i32 0, i32 0
  %40 = load ptr, ptr %39, align 8
  %41 = load ptr, ptr %7, align 8
  %42 = call i32 @file_error(ptr noundef %40, ptr noundef %41)
  %43 = load ptr, ptr %6, align 8
  store i32 %42, ptr %43, align 4
  store i64 -1, ptr %4, align 8
  store i32 1, ptr %10, align 4
  br label %44

44:                                               ; preds = %37, %34, %27
  call void @llvm.lifetime.end.p0(i64 8, ptr %9) #6
  call void @llvm.lifetime.end.p0(i64 4, ptr %8) #6
  %45 = load i64, ptr %4, align 8
  ret i64 %45
}

; Function Attrs: null_pointer_is_valid sspstrong uwtable
define internal zeroext i1 @eyesdn_read(ptr noundef %0, ptr noundef %1, ptr noundef %2, ptr noundef %3, ptr noundef %4) #0 {
  %6 = alloca i1, align 1
  %7 = alloca ptr, align 8
  %8 = alloca ptr, align 8
  %9 = alloca ptr, align 8
  %10 = alloca ptr, align 8
  %11 = alloca ptr, align 8
  %12 = alloca i64, align 8
  %13 = alloca i32, align 4
  store ptr %0, ptr %7, align 8
  store ptr %1, ptr %8, align 8
  store ptr %2, ptr %9, align 8
  store ptr %3, ptr %10, align 8
  store ptr %4, ptr %11, align 8
  call void @llvm.lifetime.start.p0(i64 8, ptr %12) #6
  %14 = load ptr, ptr %7, align 8
  %15 = load ptr, ptr %9, align 8
  %16 = load ptr, ptr %10, align 8
  %17 = call i64 @eyesdn_seek_next_packet(ptr noundef %14, ptr noundef %15, ptr noundef %16)
  store i64 %17, ptr %12, align 8
  %18 = load i64, ptr %12, align 8
  %19 = icmp slt i64 %18, 1
  br i1 %19, label %20, label %21

20:                                               ; preds = %5
  store i1 false, ptr %6, align 1
  store i32 1, ptr %13, align 4
  br label %31

21:                                               ; preds = %5
  %22 = load i64, ptr %12, align 8
  %23 = load ptr, ptr %11, align 8
  store i64 %22, ptr %23, align 8
  %24 = load ptr, ptr %7, align 8
  %25 = getelementptr inbounds nuw %struct.wtap, ptr %24, i32 0, i32 0
  %26 = load ptr, ptr %25, align 8
  %27 = load ptr, ptr %8, align 8
  %28 = load ptr, ptr %9, align 8
  %29 = load ptr, ptr %10, align 8
  %30 = call zeroext i1 @read_eyesdn_rec(ptr noundef %26, ptr noundef %27, ptr noundef %28, ptr noundef %29)
  store i1 %30, ptr %6, align 1
  store i32 1, ptr %13, align 4
  br label %31

31:                                               ; preds = %21, %20
  call void @llvm.lifetime.end.p0(i64 8, ptr %12) #6
  %32 = load i1, ptr %6, align 1
  ret i1 %32
}