; Function Attrs: null_pointer_is_valid sspstrong uwtable
define internal noundef zeroext i1 @eyesdn_read(ptr noundef readonly captures(none) %0, ptr noundef %1, ptr noundef %2, ptr noundef %3, ptr noundef writeonly captures(none) %4) #0 {
  br label %6

6:                                                ; preds = %6, %5
  %7 = load ptr, ptr %0, align 8
  %8 = tail call i32 @file_getc(ptr noundef %7)
  switch i32 %8, label %6 [
    i32 -1, label %eyesdn_seek_next_packet.exit.thread
    i32 255, label %9
  ]

9:                                                ; preds = %6
  %10 = load ptr, ptr %0, align 8
  %11 = tail call i64 @file_tell(ptr noundef %10)
  %12 = icmp eq i64 %11, -1
  br i1 %12, label %eyesdn_seek_next_packet.exit.thread, label %eyesdn_seek_next_packet.exit

eyesdn_seek_next_packet.exit.thread:              ; preds = %6, %9
  %13 = load ptr, ptr %0, align 8
  %14 = tail call i32 @file_error(ptr noundef %13, ptr noundef %3)
  store i32 %14, ptr %2, align 4
  br label %19

eyesdn_seek_next_packet.exit:                     ; preds = %9
  %15 = icmp slt i64 %11, 1
  br i1 %15, label %19, label %16

16:                                               ; preds = %eyesdn_seek_next_packet.exit
  store i64 %11, ptr %4, align 8
  %17 = load ptr, ptr %0, align 8
  %18 = tail call fastcc zeroext i1 @read_eyesdn_rec(ptr noundef %17, ptr noundef %1, ptr noundef %2, ptr noundef %3)
  br label %19

19:                                               ; preds = %eyesdn_seek_next_packet.exit.thread, %eyesdn_seek_next_packet.exit, %16
  %.0 = phi i1 [ %18, %16 ], [ false, %eyesdn_seek_next_packet.exit ], [ false, %eyesdn_seek_next_packet.exit.thread ]
  ret i1 %.0
}